; Function Attrs: mustprogress uwtable
define void @_ZN19OpenColorIO_v2_5dev13ViewTransformC2ENS_18ReferenceSpaceTypeE(ptr noundef nonnull writeonly align 8 captures(none) dereferenceable(8) initializes((0, 8)) %0, i32 noundef %1) unnamed_addr #0 align 2 personality ptr @__gxx_personality_v0 {
  %3 = tail call noalias noundef nonnull dereferenceable(168) ptr @_Znwm(i64 noundef 168) #22
  %4 = getelementptr inbounds nuw i8, ptr %3, i64 16
  store ptr %4, ptr %3, align 8, !tbaa !45
  %5 = getelementptr inbounds nuw i8, ptr %3, i64 8
  store i64 0, ptr %5, align 8, !tbaa !46
  store i8 0, ptr %4, align 1, !tbaa !42
  %6 = getelementptr inbounds nuw i8, ptr %3, i64 32
  %7 = getelementptr inbounds nuw i8, ptr %3, i64 48
  store ptr %7, ptr %6, align 8, !tbaa !45
  %8 = getelementptr inbounds nuw i8, ptr %3, i64 40
  store i64 0, ptr %8, align 8, !tbaa !46
  store i8 0, ptr %7, align 1, !tbaa !42
  %9 = getelementptr inbounds nuw i8, ptr %3, i64 64
  %10 = getelementptr inbounds nuw i8, ptr %3, i64 80
  store ptr %10, ptr %9, align 8, !tbaa !45
  %11 = getelementptr inbounds nuw i8, ptr %3, i64 72
  store i64 0, ptr %11, align 8, !tbaa !46
  store i8 0, ptr %10, align 1, !tbaa !42
  %12 = getelementptr inbounds nuw i8, ptr %3, i64 96
  store i32 %1, ptr %12, align 8, !tbaa !25
  %13 = getelementptr inbounds nuw i8, ptr %3, i64 104
  %14 = getelementptr inbounds nuw i8, ptr %3, i64 136
  tail call void @llvm.memset.p0.i64(ptr noundef nonnull align 8 dereferenceable(32) %13, i8 0, i64 32, i1 false)
  store ptr getelementptr inbounds nuw inrange(-16, 16) (i8, ptr @_ZTVN19OpenColorIO_v2_5dev13TokensManagerE, i64 16), ptr %14, align 8, !tbaa !16
  %15 = getelementptr inbounds nuw i8, ptr %3, i64 144
  tail call void @llvm.memset.p0.i64(ptr noundef nonnull align 8 dereferenceable(24) %15, i8 0, i64 24, i1 false)
  store ptr %3, ptr %0, align 8, !tbaa !22
  ret void
}